; Function Attrs: nounwind uwtable
define dso_local range(i64 0, 4294967296) i64 @hashint8(ptr noundef readonly captures(none) %0) local_unnamed_addr #0 {
  %2 = getelementptr inbounds nuw i8, ptr %0, i64 32
  %3 = load i64, ptr %2, align 8
  %4 = lshr i64 %3, 32
  %.lobit = ashr i64 %3, 63
  %5 = xor i64 %.lobit, %4
  %6 = xor i64 %5, %3
  %7 = trunc i64 %6 to i32
  %8 = tail call i32 @hash_bytes_uint32(i32 noundef %7) #6
  %9 = zext i32 %8 to i64
  ret i64 %9
}